ccopy_reg
_reconstructor
p0
(cmodules.world.game
Game
p1
c__builtin__
object
p2
Ntp3
Rp4
(dp5
Vname
p6
Vdangame
p7
sVplayer
p8
g0
(cmodules.objects.player
Player
p9
g2
Ntp10
Rp11
(dp12
g6
VDan
p13
sVtype
p14
Vplayer
p15
sVrace
p16
VHuman
p17
sVmovement
p18
L30L
sVhealth_max
p19
L50L
sVhealth_current
p20
L50L
sVinv_weight_max
p21
L100L
sVinventory
p22
(lp23
g0
(cmodules.objects.items
Item
p24
g2
Ntp25
Rp26
(dp27
Vid
p28
V10
p29
sVlocation
p30
VDan's inventory
p31
sVlocation_description
p32
VThe players inventory.
p33
sg6
Vvase
p34
sg14
V1
p35
sVowner
p36
g13
sVweight
p37
L1L
sVphysics
p38
I01
sVdescription
p39
VAn Item
p40
sbasVhead
p41
NsVchest
p42
NsVshoulders
p43
NsVarms
p44
NsVhands
p45
NsVbelt
p46
NsVlegs
p47
NsVfeet
p48
NsVring
p49
NsVneck
p50
NsVback
p51
NsVhand_main
p52
NsVhand_off
p53
NsVstrength
p54
L10L
sVconstitution
p55
L10L
sVintelligence
p56
L10L
sVcharisma
p57
L10L
sVdexterity
p58
L10L
sbsVactive_room
p59
g0
(cmodules.world.room
Room
p60
g2
Ntp61
Rp62
(dp63
g28
g35
sg6
VStartroom
p64
sg39
VA room
p65
sVcoord
p66
V1,1
p67
sVexits
p68
(lp69
g0
(cmodules.objects.exit
Exit
p70
g2
Ntp71
Rp72
(dp73
g6
VDoor
p74
sVconnects_to_room_id
p75
L1L
sg30
Vnorth
p76
sg39
VA plain door
p77
sVopen_action
p78
VYou open the door and step through
p79
sVkey
p80
NsVstatus
p81
Vopen
p82
sbasVcharacters
p83
(lp84
sVitems
p85
(lp86
g0
(g24
g2
Ntp87
Rp88
(dp89
g28
V11
p90
sg30
g64
sg32
Vhanging on the wall
p91
sg6
Vsword
p92
sg14
g35
sg36
g13
sg37
L1L
sg38
I01
sg39
VAn Item
p93
sbasbsVall_rooms
p94
(lp95
g62
asb.