ccopy_reg
_reconstructor
p0
(cmodules.world.game
Game
p1
c__builtin__
object
p2
Ntp3
Rp4
(dp5
Vname
p6
Vdangame
p7
sVplayer
p8
g0
(cmodules.objects.player
Player
p9
g2
Ntp10
Rp11
(dp12
g6
VDan
p13
sVtype
p14
Vplayer
p15
sVrace
p16
VHuman
p17
sVmovement
p18
L30L
sVhealth_max
p19
L50L
sVhealth_current
p20
L50L
sVinv_weight_max
p21
L100L
sVinventory
p22
(lp23
g0
(cmodules.objects.items
Item
p24
g2
Ntp25
Rp26
(dp27
Vid
p28
V10
p29
sVlocation
p30
VDan's inventory
p31
sVlocation_description
p32
VThe players inventory.
p33
sg6
Vvase
p34
sg14
V1
p35
sVowner
p36
g13
sVweight
p37
L1L
sVphysics
p38
I01
sVdescription
p39
VAn Item
p40
sbag0
(g24
g2
Ntp41
Rp42
(dp43
g28
V11
p44
sg30
g13
sg32
VThe players inventory.
p45
sg6
Vsword
p46
sg14
g35
sg36
g13
sg37
L1L
sg38
I01
sg39
VAn Item
p47
sbasVhead
p48
NsVchest
p49
NsVshoulders
p50
NsVarms
p51
NsVhands
p52
NsVbelt
p53
NsVlegs
p54
NsVfeet
p55
NsVring
p56
NsVneck
p57
NsVback
p58
NsVhand_main
p59
NsVhand_off
p60
NsVstrength
p61
L10L
sVconstitution
p62
L10L
sVintelligence
p63
L10L
sVcharisma
p64
L10L
sVdexterity
p65
L10L
sbsVactive_room
p66
g0
(cmodules.world.room
Room
p67
g2
Ntp68
Rp69
(dp70
g28
g35
sg6
VStartroom
p71
sg39
VA room
p72
sVcoord
p73
V1,1
p74
sVexits
p75
(lp76
g0
(cmodules.objects.exit
Exit
p77
g2
Ntp78
Rp79
(dp80
g6
VDoor
p81
sVconnects_to_room_id
p82
L1L
sg30
Vnorth
p83
sg39
VA plain door
p84
sVopen_action
p85
VYou open the door and step through
p86
sVkey
p87
NsVstatus
p88
Vopen
p89
sbasVcharacters
p90
(lp91
sVitems
p92
(lp93
sbsVall_rooms
p94
(lp95
g69
asb.