ccopy_reg
_reconstructor
p0
(cmodules.world.game
Game
p1
c__builtin__
object
p2
Ntp3
Rp4
(dp5
Vname
p6
Vdouggame
p7
sVplayer
p8
g0
(cmodules.objects.player
Player
p9
g2
Ntp10
Rp11
(dp12
g6
Vdoug
p13
sVtype
p14
Vplayer
p15
sVrace
p16
VHuman
p17
sVmovement
p18
L30L
sVbase_health_max
p19
L50L
sVhealth_max
p20
L60L
sVhealth_current
p21
L50L
sVinv_weight_max
p22
L100L
sVinventory
p23
(lp24
sVhead
p25
NsVchest
p26
g0
(cmodules.objects.items
Armor
p27
g2
Ntp28
Rp29
(dp30
Vid
p31
V10
p32
sVlocation
p33
g13
sVlocation_description
p34
VThe players inventory.
p35
sg6
Vshirt
p36
sg14
VArmor
p37
sVowner
p38
g13
sVweight
p39
L1L
sVphysics
p40
I01
sVdescription
p41
VA leather jerkin
p42
sVitem_slot
p43
Vchest
p44
sVphysical_protection
p45
L1L
sVfire_protection
p46
L0L
sVlightning_protection
p47
L0L
sVpsychic_protection
p48
L0L
sVnoise_factor
p49
L0L
sVstrength_effect
p50
L0L
sVconstitution_effect
p51
L0L
sVintelligence_effect
p52
L0L
sVcharisma_effect
p53
L0L
sVdexterity_effect
p54
L0L
sVhealth_effect
p55
L10L
sbsVshoulders
p56
NsVarms
p57
NsVhands
p58
NsVbelt
p59
NsVlegs
p60
NsVfeet
p61
NsVring
p62
NsVneck
p63
NsVback
p64
NsVhand_main
p65
NsVhand_off
p66
NsVequipment
p67
(lp68
NaNag29
aNaNaNaNaNaNaNaNaNaNasVstrength
p69
L10L
sVconstitution
p70
L10L
sVintelligence
p71
L10L
sVcharisma
p72
L10L
sVdexterity
p73
L10L
sbsVactive_room
p74
g0
(cmodules.world.room
Room
p75
g2
Ntp76
Rp77
(dp78
g31
V1
p79
sg6
Vstartroom
p80
sg41
VA room
p81
sVcoord
p82
V1,1
p83
sVexits
p84
(lp85
g0
(cmodules.objects.exit
Exit
p86
g2
Ntp87
Rp88
(dp89
g6
VDoor
p90
sVconnects_to_room_id
p91
L1L
sg33
Vnorth
p92
sg41
VA plain door
p93
sVopen_action
p94
VYou open the door and step through
p95
sVkey
p96
NsVstatus
p97
Vopen
p98
sbasVcharacters
p99
(lp100
sVitems
p101
(lp102
sbsVall_rooms
p103
(lp104
g77
asb.