ccopy_reg
_reconstructor
p0
(cmodules.world.game
Game
p1
c__builtin__
object
p2
Ntp3
Rp4
(dp5
Vname
p6
Vnew game
p7
sVplayer
p8
g0
(cmodules.objects.player
Player
p9
g2
Ntp10
Rp11
(dp12
g6
Vdave
p13
sVtype
p14
g8
sVrace
p15
VHuman
p16
sVmovement
p17
L30L
sVhealth_max
p18
L50L
sVhealth_current
p19
L50L
sVinv_weight_max
p20
L100L
sVinventory
p21
(lp22
sVhead
p23
NsVchest
p24
NsVshoulders
p25
NsVarms
p26
NsVhands
p27
NsVbelt
p28
NsVlegs
p29
NsVfeet
p30
NsVring
p31
NsVneck
p32
NsVback
p33
NsVhand_main
p34
NsVhand_off
p35
NsVstrength
p36
L10L
sVconstitution
p37
L10L
sVintelligence
p38
L10L
sVcharisma
p39
L10L
sVdexterity
p40
L10L
sbsVactive_room
p41
g0
(cmodules.world.room
Room
p42
g2
Ntp43
Rp44
(dp45
Vid
p46
V1
p47
sg6
Vstart
p48
sVdescription
p49
VA room
p50
sVcoord
p51
V1,1
p52
sVexits
p53
(lp54
g0
(cmodules.objects.exit
Exit
p55
g2
Ntp56
Rp57
(dp58
g6
VDoor
p59
sVconnects_to_room_id
p60
L1L
sVlocation
p61
Vnorth
p62
sg49
VA plain door
p63
sVopen_action
p64
VYou open the door and step through
p65
sVkey
p66
NsVstatus
p67
Vopen
p68
sbasVcharacters
p69
(lp70
sVitems
p71
(lp72
sbsVother_rooms
p73
(lp74
sb.