ccopy_reg
_reconstructor
p0
(cmodules.world.game
Game
p1
c__builtin__
object
p2
Ntp3
Rp4
(dp5
Vname
p6
Vnew_game
p7
sVplayer
p8
g0
(cmodules.objects.player
Player
p9
g2
Ntp10
Rp11
(dp12
g6
VDave
p13
sVtype
p14
Vplayer
p15
sVrace
p16
VHuman
p17
sVmovement
p18
L30L
sVhealth_max
p19
L50L
sVhealth_current
p20
L50L
sVinv_weight_max
p21
L100L
sVinventory
p22
(lp23
sVhead
p24
NsVchest
p25
NsVshoulders
p26
NsVarms
p27
NsVhands
p28
NsVbelt
p29
NsVlegs
p30
NsVfeet
p31
NsVring
p32
NsVneck
p33
NsVback
p34
NsVhand_main
p35
NsVhand_off
p36
NsVstrength
p37
L10L
sVconstitution
p38
L10L
sVintelligence
p39
L10L
sVcharisma
p40
L10L
sVdexterity
p41
L10L
sbsVactive_room
p42
g0
(cmodules.world.room
Room
p43
g2
Ntp44
Rp45
(dp46
Vid
p47
V1
p48
sg6
VStart
p49
sVdescription
p50
VA room
p51
sVcoord
p52
V1,1
p53
sVexits
p54
(lp55
g0
(cmodules.objects.exit
Exit
p56
g2
Ntp57
Rp58
(dp59
g6
VDoor
p60
sVconnects_to_room_id
p61
L1L
sVlocation
p62
Vnorth
p63
sg50
VA plain door
p64
sVopen_action
p65
VYou open the door and step through
p66
sVkey
p67
NsVstatus
p68
Vopen
p69
sbasVcharacters
p70
(lp71
sVitems
p72
(lp73
g0
(cmodules.objects.items
Item
p74
g2
Ntp75
Rp76
(dp77
g47
V5
p78
sg62
g49
sVlocation_description
p79
Von the ground
p80
sg6
VBottle
p81
sg14
g48
sVowner
p82
g13
sVweight
p83
L1L
sVphysics
p84
I01
sg50
VAn Item
p85
sbag0
(cmodules.objects.items
Weapon
p86
g2
Ntp87
Rp88
(dp89
g47
V4
p90
sg62
g49
sg79
Vleaning against the wall
p91
sg6
Vsword
p92
sg14
VWeapon
p93
sg82
g13
sg83
L1L
sg84
I01
sg50
VA Blade
p94
sVrange
p95
Vmelee
p96
sVdamage
p97
L1L
sVdamage_type
p98
Vraw
p99
sVitem_slot
p100
g35
sbasbsVall_rooms
p101
(lp102
g45
ag0
(g43
g2
Ntp103
Rp104
(dp105
g47
V2
p106
sg6
VNext
p107
sg50
g51
sg52
g53
sg54
(lp108
g0
(g56
g2
Ntp109
Rp110
(dp111
g6
g60
sg61
L1L
sg62
g63
sg50
g64
sg65
g66
sg67
Nsg68
g69
sbasg70
(lp112
sg72
(lp113
sbasb.